target datalayout = "e-m:e-p270:32:32-p271:32:32-p272:64:64-i64:64-i128:128-f80:128-n8:16:32:64-S128"
target triple = "x86_64-pc-linux-gnu"

%"class.open3d::core::Dtype" = type { i32, i64, [16 x i8] }
%"class.std::__cxx11::basic_string" = type { %"struct.std::__cxx11::basic_string<char>::_Alloc_hider", i64, %union.anon }
%"struct.std::__cxx11::basic_string<char>::_Alloc_hider" = type { ptr }
%union.anon = type { i64, [8 x i8] }
%"struct.open3d::t::io::PCLPointField" = type <{ %"class.std::__cxx11::basic_string", i32, i8, [3 x i8], i32, i32, i32, [4 x i8] }>

@.str.6 = private unnamed_addr constant [131 x i8] c"generated/home/dtcxzyw/WorkSpace/Projects/compilers/llvm-opt-benchmark/bench/open3d/Open3D/cpp/open3d/t/io/file_format/FilePCD.cpp\00", align 1
@_ZN6open3d4core5UInt8E = external global %"class.open3d::core::Dtype", align 8
@_ZN6open3d4core7Float32E = external global %"class.open3d::core::Dtype", align 8
@_ZN6open3d4core7Float64E = external global %"class.open3d::core::Dtype", align 8
@_ZN6open3d4core4Int8E = external global %"class.open3d::core::Dtype", align 8
@_ZN6open3d4core5Int16E = external global %"class.open3d::core::Dtype", align 8
@_ZN6open3d4core5Int32E = external global %"class.open3d::core::Dtype", align 8
@_ZN6open3d4core5Int64E = external global %"class.open3d::core::Dtype", align 8
@_ZN6open3d4core6UInt16E = external global %"class.open3d::core::Dtype", align 8
@_ZN6open3d4core6UInt32E = external global %"class.open3d::core::Dtype", align 8
@_ZN6open3d4core6UInt64E = external global %"class.open3d::core::Dtype", align 8
@.str.109 = private unnamed_addr constant [23 x i8] c"Unsupported data type.\00", align 1
@__PRETTY_FUNCTION__._ZN6open3d1t2ioL37SetPCDHeaderFieldTypeAndSizeFromDtypeERKNS_4core5DtypeERNS1_13PCLPointFieldE = private unnamed_addr constant [96 x i8] c"void open3d::t::io::SetPCDHeaderFieldTypeAndSizeFromDtype(const core::Dtype &, PCLPointField &)\00", align 1

; Function Attrs: mustprogress ssp uwtable
define internal void @_ZN6open3d1t2ioL37SetPCDHeaderFieldTypeAndSizeFromDtypeERKNS_4core5DtypeERNS1_13PCLPointFieldE(ptr noundef nonnull align 8 dereferenceable(32) %0, ptr noundef nonnull align 8 dereferenceable(52) %1) #3 {
  %3 = alloca ptr, align 8
  %4 = alloca ptr, align 8
  store ptr %0, ptr %3, align 8, !tbaa !1120
  store ptr %1, ptr %4, align 8, !tbaa !158
  %5 = load ptr, ptr %3, align 8, !tbaa !1120
  %6 = call noundef zeroext i1 @_ZNK6open3d4core5DtypeeqERKS1_(ptr noundef nonnull align 8 dereferenceable(32) %5, ptr noundef nonnull align 8 dereferenceable(32) @_ZN6open3d4core4Int8E)
  br i1 %6, label %7, label %12

7:                                                ; preds = %2
  %8 = load ptr, ptr %4, align 8, !tbaa !158
  %9 = getelementptr inbounds nuw %"struct.open3d::t::io::PCLPointField", ptr %8, i32 0, i32 2
  store i8 73, ptr %9, align 4, !tbaa !186
  %10 = load ptr, ptr %4, align 8, !tbaa !158
  %11 = getelementptr inbounds nuw %"struct.open3d::t::io::PCLPointField", ptr %10, i32 0, i32 1
  store i32 1, ptr %11, align 8, !tbaa !184
  br label %94

12:                                               ; preds = %2
  %13 = load ptr, ptr %3, align 8, !tbaa !1120
  %14 = call noundef zeroext i1 @_ZNK6open3d4core5DtypeeqERKS1_(ptr noundef nonnull align 8 dereferenceable(32) %13, ptr noundef nonnull align 8 dereferenceable(32) @_ZN6open3d4core5Int16E)
  br i1 %14, label %15, label %20

15:                                               ; preds = %12
  %16 = load ptr, ptr %4, align 8, !tbaa !158
  %17 = getelementptr inbounds nuw %"struct.open3d::t::io::PCLPointField", ptr %16, i32 0, i32 2
  store i8 73, ptr %17, align 4, !tbaa !186
  %18 = load ptr, ptr %4, align 8, !tbaa !158
  %19 = getelementptr inbounds nuw %"struct.open3d::t::io::PCLPointField", ptr %18, i32 0, i32 1
  store i32 2, ptr %19, align 8, !tbaa !184
  br label %93

20:                                               ; preds = %12
  %21 = load ptr, ptr %3, align 8, !tbaa !1120
  %22 = call noundef zeroext i1 @_ZNK6open3d4core5DtypeeqERKS1_(ptr noundef nonnull align 8 dereferenceable(32) %21, ptr noundef nonnull align 8 dereferenceable(32) @_ZN6open3d4core5Int32E)
  br i1 %22, label %23, label %28

23:                                               ; preds = %20
  %24 = load ptr, ptr %4, align 8, !tbaa !158
  %25 = getelementptr inbounds nuw %"struct.open3d::t::io::PCLPointField", ptr %24, i32 0, i32 2
  store i8 73, ptr %25, align 4, !tbaa !186
  %26 = load ptr, ptr %4, align 8, !tbaa !158
  %27 = getelementptr inbounds nuw %"struct.open3d::t::io::PCLPointField", ptr %26, i32 0, i32 1
  store i32 4, ptr %27, align 8, !tbaa !184
  br label %92

28:                                               ; preds = %20
  %29 = load ptr, ptr %3, align 8, !tbaa !1120
  %30 = call noundef zeroext i1 @_ZNK6open3d4core5DtypeeqERKS1_(ptr noundef nonnull align 8 dereferenceable(32) %29, ptr noundef nonnull align 8 dereferenceable(32) @_ZN6open3d4core5Int64E)
  br i1 %30, label %31, label %36

31:                                               ; preds = %28
  %32 = load ptr, ptr %4, align 8, !tbaa !158
  %33 = getelementptr inbounds nuw %"struct.open3d::t::io::PCLPointField", ptr %32, i32 0, i32 2
  store i8 73, ptr %33, align 4, !tbaa !186
  %34 = load ptr, ptr %4, align 8, !tbaa !158
  %35 = getelementptr inbounds nuw %"struct.open3d::t::io::PCLPointField", ptr %34, i32 0, i32 1
  store i32 8, ptr %35, align 8, !tbaa !184
  br label %91

36:                                               ; preds = %28
  %37 = load ptr, ptr %3, align 8, !tbaa !1120
  %38 = call noundef zeroext i1 @_ZNK6open3d4core5DtypeeqERKS1_(ptr noundef nonnull align 8 dereferenceable(32) %37, ptr noundef nonnull align 8 dereferenceable(32) @_ZN6open3d4core5UInt8E)
  br i1 %38, label %39, label %44

39:                                               ; preds = %36
  %40 = load ptr, ptr %4, align 8, !tbaa !158
  %41 = getelementptr inbounds nuw %"struct.open3d::t::io::PCLPointField", ptr %40, i32 0, i32 2
  store i8 85, ptr %41, align 4, !tbaa !186
  %42 = load ptr, ptr %4, align 8, !tbaa !158
  %43 = getelementptr inbounds nuw %"struct.open3d::t::io::PCLPointField", ptr %42, i32 0, i32 1
  store i32 1, ptr %43, align 8, !tbaa !184
  br label %90

44:                                               ; preds = %36
  %45 = load ptr, ptr %3, align 8, !tbaa !1120
  %46 = call noundef zeroext i1 @_ZNK6open3d4core5DtypeeqERKS1_(ptr noundef nonnull align 8 dereferenceable(32) %45, ptr noundef nonnull align 8 dereferenceable(32) @_ZN6open3d4core6UInt16E)
  br i1 %46, label %47, label %52

47:                                               ; preds = %44
  %48 = load ptr, ptr %4, align 8, !tbaa !158
  %49 = getelementptr inbounds nuw %"struct.open3d::t::io::PCLPointField", ptr %48, i32 0, i32 2
  store i8 85, ptr %49, align 4, !tbaa !186
  %50 = load ptr, ptr %4, align 8, !tbaa !158
  %51 = getelementptr inbounds nuw %"struct.open3d::t::io::PCLPointField", ptr %50, i32 0, i32 1
  store i32 2, ptr %51, align 8, !tbaa !184
  br label %89

52:                                               ; preds = %44
  %53 = load ptr, ptr %3, align 8, !tbaa !1120
  %54 = call noundef zeroext i1 @_ZNK6open3d4core5DtypeeqERKS1_(ptr noundef nonnull align 8 dereferenceable(32) %53, ptr noundef nonnull align 8 dereferenceable(32) @_ZN6open3d4core6UInt32E)
  br i1 %54, label %55, label %60

55:                                               ; preds = %52
  %56 = load ptr, ptr %4, align 8, !tbaa !158
  %57 = getelementptr inbounds nuw %"struct.open3d::t::io::PCLPointField", ptr %56, i32 0, i32 2
  store i8 85, ptr %57, align 4, !tbaa !186
  %58 = load ptr, ptr %4, align 8, !tbaa !158
  %59 = getelementptr inbounds nuw %"struct.open3d::t::io::PCLPointField", ptr %58, i32 0, i32 1
  store i32 4, ptr %59, align 8, !tbaa !184
  br label %88

60:                                               ; preds = %52
  %61 = load ptr, ptr %3, align 8, !tbaa !1120
  %62 = call noundef zeroext i1 @_ZNK6open3d4core5DtypeeqERKS1_(ptr noundef nonnull align 8 dereferenceable(32) %61, ptr noundef nonnull align 8 dereferenceable(32) @_ZN6open3d4core6UInt64E)
  br i1 %62, label %63, label %68

63:                                               ; preds = %60
  %64 = load ptr, ptr %4, align 8, !tbaa !158
  %65 = getelementptr inbounds nuw %"struct.open3d::t::io::PCLPointField", ptr %64, i32 0, i32 2
  store i8 85, ptr %65, align 4, !tbaa !186
  %66 = load ptr, ptr %4, align 8, !tbaa !158
  %67 = getelementptr inbounds nuw %"struct.open3d::t::io::PCLPointField", ptr %66, i32 0, i32 1
  store i32 8, ptr %67, align 8, !tbaa !184
  br label %87

68:                                               ; preds = %60
  %69 = load ptr, ptr %3, align 8, !tbaa !1120
  %70 = call noundef zeroext i1 @_ZNK6open3d4core5DtypeeqERKS1_(ptr noundef nonnull align 8 dereferenceable(32) %69, ptr noundef nonnull align 8 dereferenceable(32) @_ZN6open3d4core7Float32E)
  br i1 %70, label %71, label %76

71:                                               ; preds = %68
  %72 = load ptr, ptr %4, align 8, !tbaa !158
  %73 = getelementptr inbounds nuw %"struct.open3d::t::io::PCLPointField", ptr %72, i32 0, i32 2
  store i8 70, ptr %73, align 4, !tbaa !186
  %74 = load ptr, ptr %4, align 8, !tbaa !158
  %75 = getelementptr inbounds nuw %"struct.open3d::t::io::PCLPointField", ptr %74, i32 0, i32 1
  store i32 4, ptr %75, align 8, !tbaa !184
  br label %86

76:                                               ; preds = %68
  %77 = load ptr, ptr %3, align 8, !tbaa !1120
  %78 = call noundef zeroext i1 @_ZNK6open3d4core5DtypeeqERKS1_(ptr noundef nonnull align 8 dereferenceable(32) %77, ptr noundef nonnull align 8 dereferenceable(32) @_ZN6open3d4core7Float64E)
  br i1 %78, label %79, label %84

79:                                               ; preds = %76
  %80 = load ptr, ptr %4, align 8, !tbaa !158
  %81 = getelementptr inbounds nuw %"struct.open3d::t::io::PCLPointField", ptr %80, i32 0, i32 2
  store i8 70, ptr %81, align 4, !tbaa !186
  %82 = load ptr, ptr %4, align 8, !tbaa !158
  %83 = getelementptr inbounds nuw %"struct.open3d::t::io::PCLPointField", ptr %82, i32 0, i32 1
  store i32 8, ptr %83, align 8, !tbaa !184
  br label %85

84:                                               ; preds = %76
  call void @_ZN6open3d7utility6Logger9LogError_IJEEEvPKciS4_S4_DpOT_(ptr noundef @.str.6, i32 noundef 680, ptr noundef @__PRETTY_FUNCTION__._ZN6open3d1t2ioL37SetPCDHeaderFieldTypeAndSizeFromDtypeERKNS_4core5DtypeERNS1_13PCLPointFieldE, ptr noundef @.str.109) #32
  unreachable

85:                                               ; preds = %79
  br label %86

86:                                               ; preds = %85, %71
  br label %87

87:                                               ; preds = %86, %63
  br label %88

88:                                               ; preds = %87, %55
  br label %89

89:                                               ; preds = %88, %47
  br label %90

90:                                               ; preds = %89, %39
  br label %91

91:                                               ; preds = %90, %31
  br label %92

92:                                               ; preds = %91, %23
  br label %93

93:                                               ; preds = %92, %15
  br label %94

94:                                               ; preds = %93, %7
  ret void
}