; Function Attrs: mustprogress ssp uwtable
define internal fastcc void @_ZN6open3d1t2ioL37SetPCDHeaderFieldTypeAndSizeFromDtypeERKNS_4core5DtypeERNS1_13PCLPointFieldE(ptr noundef nonnull align 8 dereferenceable(32) %0, ptr noundef nonnull writeonly align 8 captures(none) dereferenceable(52) %1) unnamed_addr #4 {
  %3 = tail call noundef zeroext i1 @_ZNK6open3d4core5DtypeeqERKS1_(ptr noundef nonnull align 8 dereferenceable(32) %0, ptr noundef nonnull align 8 dereferenceable(32) @_ZN6open3d4core4Int8E)
  br i1 %3, label %23, label %4

4:                                                ; preds = %2
  %5 = tail call noundef zeroext i1 @_ZNK6open3d4core5DtypeeqERKS1_(ptr noundef nonnull align 8 dereferenceable(32) %0, ptr noundef nonnull align 8 dereferenceable(32) @_ZN6open3d4core5Int16E)
  br i1 %5, label %23, label %6

6:                                                ; preds = %4
  %7 = tail call noundef zeroext i1 @_ZNK6open3d4core5DtypeeqERKS1_(ptr noundef nonnull align 8 dereferenceable(32) %0, ptr noundef nonnull align 8 dereferenceable(32) @_ZN6open3d4core5Int32E)
  br i1 %7, label %23, label %8

8:                                                ; preds = %6
  %9 = tail call noundef zeroext i1 @_ZNK6open3d4core5DtypeeqERKS1_(ptr noundef nonnull align 8 dereferenceable(32) %0, ptr noundef nonnull align 8 dereferenceable(32) @_ZN6open3d4core5Int64E)
  br i1 %9, label %23, label %10

10:                                               ; preds = %8
  %11 = tail call noundef zeroext i1 @_ZNK6open3d4core5DtypeeqERKS1_(ptr noundef nonnull align 8 dereferenceable(32) %0, ptr noundef nonnull align 8 dereferenceable(32) @_ZN6open3d4core5UInt8E)
  br i1 %11, label %23, label %12

12:                                               ; preds = %10
  %13 = tail call noundef zeroext i1 @_ZNK6open3d4core5DtypeeqERKS1_(ptr noundef nonnull align 8 dereferenceable(32) %0, ptr noundef nonnull align 8 dereferenceable(32) @_ZN6open3d4core6UInt16E)
  br i1 %13, label %23, label %14

14:                                               ; preds = %12
  %15 = tail call noundef zeroext i1 @_ZNK6open3d4core5DtypeeqERKS1_(ptr noundef nonnull align 8 dereferenceable(32) %0, ptr noundef nonnull align 8 dereferenceable(32) @_ZN6open3d4core6UInt32E)
  br i1 %15, label %23, label %16

16:                                               ; preds = %14
  %17 = tail call noundef zeroext i1 @_ZNK6open3d4core5DtypeeqERKS1_(ptr noundef nonnull align 8 dereferenceable(32) %0, ptr noundef nonnull align 8 dereferenceable(32) @_ZN6open3d4core6UInt64E)
  br i1 %17, label %23, label %18

18:                                               ; preds = %16
  %19 = tail call noundef zeroext i1 @_ZNK6open3d4core5DtypeeqERKS1_(ptr noundef nonnull align 8 dereferenceable(32) %0, ptr noundef nonnull align 8 dereferenceable(32) @_ZN6open3d4core7Float32E)
  br i1 %19, label %23, label %20

20:                                               ; preds = %18
  %21 = tail call noundef zeroext i1 @_ZNK6open3d4core5DtypeeqERKS1_(ptr noundef nonnull align 8 dereferenceable(32) %0, ptr noundef nonnull align 8 dereferenceable(32) @_ZN6open3d4core7Float64E)
  br i1 %21, label %23, label %22

22:                                               ; preds = %20
  tail call void @_ZN6open3d7utility6Logger9LogError_IJEEEvPKciS4_S4_DpOT_(ptr noundef nonnull @.str.6, i32 noundef 680, ptr noundef nonnull @__PRETTY_FUNCTION__._ZN6open3d1t2ioL37SetPCDHeaderFieldTypeAndSizeFromDtypeERKNS_4core5DtypeERNS1_13PCLPointFieldE, ptr noundef nonnull @.str.109) #38
  unreachable

23:                                               ; preds = %20, %18, %16, %14, %12, %10, %8, %6, %4, %2
  %.sink31 = phi i8 [ 73, %2 ], [ 73, %4 ], [ 73, %6 ], [ 73, %8 ], [ 85, %10 ], [ 85, %12 ], [ 85, %14 ], [ 85, %16 ], [ 70, %18 ], [ 70, %20 ]
  %.sink = phi i32 [ 1, %2 ], [ 2, %4 ], [ 4, %6 ], [ 8, %8 ], [ 1, %10 ], [ 2, %12 ], [ 4, %14 ], [ 8, %16 ], [ 4, %18 ], [ 8, %20 ]
  %24 = getelementptr inbounds nuw i8, ptr %1, i64 36
  store i8 %.sink31, ptr %24, align 4, !tbaa !86
  %25 = getelementptr inbounds nuw i8, ptr %1, i64 32
  store i32 %.sink, ptr %25, align 8, !tbaa !84
  ret void
}